; Function Attrs: nofree nounwind sspstrong uwtable
define dso_local void @main() local_unnamed_addr #0 {
  %1 = tail call i32 (i8*, ...) @__isoc99_scanf(i8* getelementptr inbounds ([6 x i8], [6 x i8]* @.str, i64 0, i64 0), i32* nonnull @n1, i32* nonnull @n2) #3
  %2 = load i32, i32* @n1, align 4, !tbaa !5
  %3 = icmp sgt i32 %2, 0
  br i1 %3, label %8, label %4

4:                                                ; preds = %8, %0
  %5 = phi i32 [ %2, %0 ], [ %13, %8 ]
  %6 = load i32, i32* @n2, align 4, !tbaa !5
  %7 = icmp sgt i32 %6, 0
  br i1 %7, label %16, label %26

8:                                                ; preds = %0, %8
  %9 = phi i64 [ %12, %8 ], [ 0, %0 ]
  %10 = getelementptr inbounds [50 x i32], [50 x i32]* @a1, i64 0, i64 %9
  %11 = tail call i32 (i8*, ...) @__isoc99_scanf(i8* getelementptr inbounds ([3 x i8], [3 x i8]* @.str.1, i64 0, i64 0), i32* nonnull %10) #3
  %12 = add nuw nsw i64 %9, 1
  %13 = load i32, i32* @n1, align 4, !tbaa !5
  %14 = sext i32 %13 to i64
  %15 = icmp slt i64 %12, %14
  br i1 %15, label %8, label %4, !llvm.loop !9

16:                                               ; preds = %4, %16
  %17 = phi i64 [ %20, %16 ], [ 0, %4 ]
  %18 = getelementptr inbounds [50 x i32], [50 x i32]* @a2, i64 0, i64 %17
  %19 = tail call i32 (i8*, ...) @__isoc99_scanf(i8* getelementptr inbounds ([3 x i8], [3 x i8]* @.str.1, i64 0, i64 0), i32* nonnull %18) #3
  %20 = add nuw nsw i64 %17, 1
  %21 = load i32, i32* @n2, align 4, !tbaa !5
  %22 = sext i32 %21 to i64
  %23 = icmp slt i64 %20, %22
  br i1 %23, label %16, label %24, !llvm.loop !11

24:                                               ; preds = %16
  %25 = load i32, i32* @n1, align 4, !tbaa !5
  br label %26

26:                                               ; preds = %24, %4
  %27 = phi i32 [ %21, %24 ], [ %6, %4 ]
  %28 = phi i32 [ %25, %24 ], [ %5, %4 ]
  %29 = icmp sgt i32 %28, 1
  br i1 %29, label %30, label %69

30:                                               ; preds = %26
  %31 = add nsw i32 %28, -1
  %32 = zext i32 %31 to i64
  %33 = and i64 %32, 1
  %34 = icmp eq i32 %31, 1
  %35 = and i64 %32, 4294967294
  %36 = icmp eq i64 %33, 0
  br label %37

37:                                               ; preds = %66, %30
  %38 = phi i32 [ %67, %66 ], [ 0, %30 ]
  %39 = load i32, i32* getelementptr inbounds ([50 x i32], [50 x i32]* @a1, i64 0, i64 0), align 16, !tbaa !5
  br i1 %34, label %56, label %40

40:                                               ; preds = %37, %166
  %41 = phi i32 [ %167, %166 ], [ %39, %37 ]
  %42 = phi i64 [ %52, %166 ], [ 0, %37 ]
  %43 = phi i64 [ %168, %166 ], [ %35, %37 ]
  %44 = or i64 %42, 1
  %45 = getelementptr inbounds [50 x i32], [50 x i32]* @a1, i64 0, i64 %44
  %46 = load i32, i32* %45, align 4, !tbaa !5
  %47 = icmp sgt i32 %41, %46
  br i1 %47, label %48, label %50

48:                                               ; preds = %40
  %49 = getelementptr inbounds [50 x i32], [50 x i32]* @a1, i64 0, i64 %42
  store i32 %46, i32* %49, align 8, !tbaa !5
  store i32 %41, i32* %45, align 4, !tbaa !5
  br label %50

50:                                               ; preds = %48, %40
  %51 = phi i32 [ %41, %48 ], [ %46, %40 ]
  %52 = add nuw nsw i64 %42, 2
  %53 = getelementptr inbounds [50 x i32], [50 x i32]* @a1, i64 0, i64 %52
  %54 = load i32, i32* %53, align 8, !tbaa !5
  %55 = icmp sgt i32 %51, %54
  br i1 %55, label %164, label %166

56:                                               ; preds = %166, %37
  %57 = phi i32 [ %39, %37 ], [ %167, %166 ]
  %58 = phi i64 [ 0, %37 ], [ %52, %166 ]
  br i1 %36, label %66, label %59

59:                                               ; preds = %56
  %60 = add nuw nsw i64 %58, 1
  %61 = getelementptr inbounds [50 x i32], [50 x i32]* @a1, i64 0, i64 %60
  %62 = load i32, i32* %61, align 4, !tbaa !5
  %63 = icmp sgt i32 %57, %62
  br i1 %63, label %64, label %66

64:                                               ; preds = %59
  %65 = getelementptr inbounds [50 x i32], [50 x i32]* @a1, i64 0, i64 %58
  store i32 %62, i32* %65, align 4, !tbaa !5
  store i32 %57, i32* %61, align 4, !tbaa !5
  br label %66

66:                                               ; preds = %64, %59, %56
  %67 = add nuw nsw i32 %38, 1
  %68 = icmp eq i32 %67, %31
  br i1 %68, label %69, label %37, !llvm.loop !12

69:                                               ; preds = %66, %26
  %70 = icmp sgt i32 %27, 1
  br i1 %70, label %71, label %110

71:                                               ; preds = %69
  %72 = add nsw i32 %27, -1
  %73 = zext i32 %72 to i64
  %74 = and i64 %73, 1
  %75 = icmp eq i32 %72, 1
  %76 = and i64 %73, 4294967294
  %77 = icmp eq i64 %74, 0
  br label %78

78:                                               ; preds = %107, %71
  %79 = phi i32 [ %108, %107 ], [ 0, %71 ]
  %80 = load i32, i32* getelementptr inbounds ([50 x i32], [50 x i32]* @a2, i64 0, i64 0), align 16, !tbaa !5
  br i1 %75, label %97, label %81

81:                                               ; preds = %78, %172
  %82 = phi i32 [ %173, %172 ], [ %80, %78 ]
  %83 = phi i64 [ %93, %172 ], [ 0, %78 ]
  %84 = phi i64 [ %174, %172 ], [ %76, %78 ]
  %85 = or i64 %83, 1
  %86 = getelementptr inbounds [50 x i32], [50 x i32]* @a2, i64 0, i64 %85
  %87 = load i32, i32* %86, align 4, !tbaa !5
  %88 = icmp sgt i32 %82, %87
  br i1 %88, label %89, label %91

89:                                               ; preds = %81
  %90 = getelementptr inbounds [50 x i32], [50 x i32]* @a2, i64 0, i64 %83
  store i32 %87, i32* %90, align 8, !tbaa !5
  store i32 %82, i32* %86, align 4, !tbaa !5
  br label %91

91:                                               ; preds = %89, %81
  %92 = phi i32 [ %82, %89 ], [ %87, %81 ]
  %93 = add nuw nsw i64 %83, 2
  %94 = getelementptr inbounds [50 x i32], [50 x i32]* @a2, i64 0, i64 %93
  %95 = load i32, i32* %94, align 8, !tbaa !5
  %96 = icmp sgt i32 %92, %95
  br i1 %96, label %170, label %172

97:                                               ; preds = %172, %78
  %98 = phi i32 [ %80, %78 ], [ %173, %172 ]
  %99 = phi i64 [ 0, %78 ], [ %93, %172 ]
  br i1 %77, label %107, label %100

100:                                              ; preds = %97
  %101 = add nuw nsw i64 %99, 1
  %102 = getelementptr inbounds [50 x i32], [50 x i32]* @a2, i64 0, i64 %101
  %103 = load i32, i32* %102, align 4, !tbaa !5
  %104 = icmp sgt i32 %98, %103
  br i1 %104, label %105, label %107

105:                                              ; preds = %100
  %106 = getelementptr inbounds [50 x i32], [50 x i32]* @a2, i64 0, i64 %99
  store i32 %103, i32* %106, align 4, !tbaa !5
  store i32 %98, i32* %102, align 4, !tbaa !5
  br label %107

107:                                              ; preds = %105, %100, %97
  %108 = add nuw nsw i32 %79, 1
  %109 = icmp eq i32 %108, %72
  br i1 %109, label %110, label %78, !llvm.loop !12

110:                                              ; preds = %107, %69
  %111 = add nsw i32 %28, -1
  %112 = sext i32 %111 to i64
  %113 = getelementptr inbounds [50 x i32], [50 x i32]* @a2, i64 0, i64 %112
  %114 = icmp sgt i32 %28, 0
  br i1 %114, label %115, label %137

115:                                              ; preds = %110
  %116 = zext i32 %111 to i64
  %117 = zext i32 %28 to i64
  %118 = getelementptr inbounds [50 x i32], [50 x i32]* @a1, i64 0, i64 %116
  br label %119

119:                                              ; preds = %132, %115
  %120 = phi i64 [ 0, %115 ], [ %133, %132 ]
  %121 = icmp eq i64 %120, %116
  br i1 %121, label %122, label %128

122:                                              ; preds = %119
  %123 = load i32, i32* %118, align 4, !tbaa !5
  %124 = load i32, i32* %113, align 4, !tbaa !5
  %125 = icmp eq i32 %123, %124
  br i1 %125, label %126, label %128

126:                                              ; preds = %122
  %127 = tail call i32 (i8*, ...) @printf(i8* nonnull dereferenceable(1) getelementptr inbounds ([3 x i8], [3 x i8]* @.str.1, i64 0, i64 0), i32 %123) #3
  br label %132

128:                                              ; preds = %122, %119
  %129 = getelementptr inbounds [50 x i32], [50 x i32]* @a1, i64 0, i64 %120
  %130 = load i32, i32* %129, align 4, !tbaa !5
  %131 = tail call i32 (i8*, ...) @printf(i8* nonnull dereferenceable(1) getelementptr inbounds ([4 x i8], [4 x i8]* @.str.2, i64 0, i64 0), i32 %130) #3
  br label %132

132:                                              ; preds = %128, %126
  %133 = add nuw nsw i64 %120, 1
  %134 = icmp eq i64 %133, %117
  br i1 %134, label %135, label %119, !llvm.loop !13

135:                                              ; preds = %132
  %136 = load i32, i32* @n2, align 4, !tbaa !5
  br label %137

137:                                              ; preds = %135, %110
  %138 = phi i32 [ %136, %135 ], [ %27, %110 ]
  %139 = add nsw i32 %138, -1
  %140 = sext i32 %139 to i64
  %141 = getelementptr inbounds [50 x i32], [50 x i32]* @a2, i64 0, i64 %140
  %142 = icmp sgt i32 %138, 0
  br i1 %142, label %143, label %163

143:                                              ; preds = %137
  %144 = zext i32 %139 to i64
  %145 = zext i32 %138 to i64
  %146 = getelementptr inbounds [50 x i32], [50 x i32]* @a2, i64 0, i64 %144
  br label %147

147:                                              ; preds = %160, %143
  %148 = phi i64 [ 0, %143 ], [ %161, %160 ]
  %149 = icmp eq i64 %148, %144
  br i1 %149, label %150, label %156

150:                                              ; preds = %147
  %151 = load i32, i32* %146, align 4, !tbaa !5
  %152 = load i32, i32* %141, align 4, !tbaa !5
  %153 = icmp eq i32 %151, %152
  br i1 %153, label %154, label %156

154:                                              ; preds = %150
  %155 = tail call i32 (i8*, ...) @printf(i8* nonnull dereferenceable(1) getelementptr inbounds ([3 x i8], [3 x i8]* @.str.1, i64 0, i64 0), i32 %151) #3
  br label %160

156:                                              ; preds = %150, %147
  %157 = getelementptr inbounds [50 x i32], [50 x i32]* @a2, i64 0, i64 %148
  %158 = load i32, i32* %157, align 4, !tbaa !5
  %159 = tail call i32 (i8*, ...) @printf(i8* nonnull dereferenceable(1) getelementptr inbounds ([4 x i8], [4 x i8]* @.str.2, i64 0, i64 0), i32 %158) #3
  br label %160

160:                                              ; preds = %156, %154
  %161 = add nuw nsw i64 %148, 1
  %162 = icmp eq i64 %161, %145
  br i1 %162, label %163, label %147, !llvm.loop !13

163:                                              ; preds = %160, %137
  ret void

164:                                              ; preds = %50
  %165 = getelementptr inbounds [50 x i32], [50 x i32]* @a1, i64 0, i64 %44
  store i32 %54, i32* %165, align 4, !tbaa !5
  store i32 %51, i32* %53, align 8, !tbaa !5
  br label %166

166:                                              ; preds = %164, %50
  %167 = phi i32 [ %51, %164 ], [ %54, %50 ]
  %168 = add i64 %43, -2
  %169 = icmp eq i64 %168, 0
  br i1 %169, label %56, label %40, !llvm.loop !14

170:                                              ; preds = %91
  %171 = getelementptr inbounds [50 x i32], [50 x i32]* @a2, i64 0, i64 %85
  store i32 %95, i32* %171, align 4, !tbaa !5
  store i32 %92, i32* %94, align 8, !tbaa !5
  br label %172

172:                                              ; preds = %170, %91
  %173 = phi i32 [ %92, %170 ], [ %95, %91 ]
  %174 = add i64 %84, -2
  %175 = icmp eq i64 %174, 0
  br i1 %175, label %97, label %81, !llvm.loop !14
}

; Function Attrs: nofree norecurse nosync nounwind sspstrong uwtable
define dso_local void @sort(i32* nocapture %0, i32 %1) local_unnamed_addr #1 {
  %3 = icmp sgt i32 %1, 1
  br i1 %3, label %4, label %43

4:                                                ; preds = %2
  %5 = add nsw i32 %1, -1
  %6 = zext i32 %5 to i64
  %7 = and i64 %6, 1
  %8 = icmp eq i32 %5, 1
  %9 = and i64 %6, 4294967294
  %10 = icmp eq i64 %7, 0
  br label %11

11:                                               ; preds = %4, %40
  %12 = phi i32 [ %41, %40 ], [ 0, %4 ]
  %13 = load i32, i32* %0, align 4, !tbaa !5
  br i1 %8, label %30, label %14

14:                                               ; preds = %11, %46
  %15 = phi i32 [ %47, %46 ], [ %13, %11 ]
  %16 = phi i64 [ %26, %46 ], [ 0, %11 ]
  %17 = phi i64 [ %48, %46 ], [ %9, %11 ]
  %18 = or i64 %16, 1
  %19 = getelementptr inbounds i32, i32* %0, i64 %18
  %20 = load i32, i32* %19, align 4, !tbaa !5
  %21 = icmp sgt i32 %15, %20
  br i1 %21, label %22, label %24

22:                                               ; preds = %14
  %23 = getelementptr inbounds i32, i32* %0, i64 %16
  store i32 %20, i32* %23, align 4, !tbaa !5
  store i32 %15, i32* %19, align 4, !tbaa !5
  br label %24

24:                                               ; preds = %22, %14
  %25 = phi i32 [ %15, %22 ], [ %20, %14 ]
  %26 = add nuw nsw i64 %16, 2
  %27 = getelementptr inbounds i32, i32* %0, i64 %26
  %28 = load i32, i32* %27, align 4, !tbaa !5
  %29 = icmp sgt i32 %25, %28
  br i1 %29, label %44, label %46

30:                                               ; preds = %46, %11
  %31 = phi i32 [ %13, %11 ], [ %47, %46 ]
  %32 = phi i64 [ 0, %11 ], [ %26, %46 ]
  br i1 %10, label %40, label %33

33:                                               ; preds = %30
  %34 = add nuw nsw i64 %32, 1
  %35 = getelementptr inbounds i32, i32* %0, i64 %34
  %36 = load i32, i32* %35, align 4, !tbaa !5
  %37 = icmp sgt i32 %31, %36
  br i1 %37, label %38, label %40

38:                                               ; preds = %33
  %39 = getelementptr inbounds i32, i32* %0, i64 %32
  store i32 %36, i32* %39, align 4, !tbaa !5
  store i32 %31, i32* %35, align 4, !tbaa !5
  br label %40

40:                                               ; preds = %38, %33, %30
  %41 = add nuw nsw i32 %12, 1
  %42 = icmp eq i32 %41, %5
  br i1 %42, label %43, label %11, !llvm.loop !12

43:                                               ; preds = %40, %2
  ret void

44:                                               ; preds = %24
  %45 = getelementptr inbounds i32, i32* %0, i64 %18
  store i32 %28, i32* %45, align 4, !tbaa !5
  store i32 %25, i32* %27, align 4, !tbaa !5
  br label %46

46:                                               ; preds = %44, %24
  %47 = phi i32 [ %25, %44 ], [ %28, %24 ]
  %48 = add i64 %17, -2
  %49 = icmp eq i64 %48, 0
  br i1 %49, label %30, label %14, !llvm.loop !14
}

; Function Attrs: nofree nounwind sspstrong uwtable
define dso_local void @pr(i32* nocapture readonly %0, i32 %1) local_unnamed_addr #0 {
  %3 = add nsw i32 %1, -1
  %4 = sext i32 %3 to i64
  %5 = getelementptr inbounds [50 x i32], [50 x i32]* @a2, i64 0, i64 %4
  %6 = icmp sgt i32 %1, 0
  br i1 %6, label %7, label %27

7:                                                ; preds = %2
  %8 = zext i32 %3 to i64
  %9 = zext i32 %1 to i64
  %10 = getelementptr inbounds i32, i32* %0, i64 %8
  br label %11

11:                                               ; preds = %7, %24
  %12 = phi i64 [ 0, %7 ], [ %25, %24 ]
  %13 = icmp eq i64 %12, %8
  br i1 %13, label %14, label %20

14:                                               ; preds = %11
  %15 = load i32, i32* %10, align 4, !tbaa !5
  %16 = load i32, i32* %5, align 4, !tbaa !5
  %17 = icmp eq i32 %15, %16
  br i1 %17, label %18, label %20

18:                                               ; preds = %14
  %19 = tail call i32 (i8*, ...) @printf(i8* nonnull dereferenceable(1) getelementptr inbounds ([3 x i8], [3 x i8]* @.str.1, i64 0, i64 0), i32 %15)
  br label %24

20:                                               ; preds = %14, %11
  %21 = getelementptr inbounds i32, i32* %0, i64 %12
  %22 = load i32, i32* %21, align 4, !tbaa !5
  %23 = tail call i32 (i8*, ...) @printf(i8* nonnull dereferenceable(1) getelementptr inbounds ([4 x i8], [4 x i8]* @.str.2, i64 0, i64 0), i32 %22)
  br label %24

24:                                               ; preds = %18, %20
  %25 = add nuw nsw i64 %12, 1
  %26 = icmp eq i64 %25, %9
  br i1 %26, label %27, label %11, !llvm.loop !13

27:                                               ; preds = %24, %2
  ret void
}

; Function Attrs: nofree nounwind sspstrong uwtable
define dso_local void @scn() local_unnamed_addr #0 {
  %1 = tail call i32 (i8*, ...) @__isoc99_scanf(i8* getelementptr inbounds ([6 x i8], [6 x i8]* @.str, i64 0, i64 0), i32* nonnull @n1, i32* nonnull @n2)
  %2 = load i32, i32* @n1, align 4, !tbaa !5
  %3 = icmp sgt i32 %2, 0
  br i1 %3, label %7, label %4

4:                                                ; preds = %7, %0
  %5 = load i32, i32* @n2, align 4, !tbaa !5
  %6 = icmp sgt i32 %5, 0
  br i1 %6, label %15, label %23

7:                                                ; preds = %0, %7
  %8 = phi i64 [ %11, %7 ], [ 0, %0 ]
  %9 = getelementptr inbounds [50 x i32], [50 x i32]* @a1, i64 0, i64 %8
  %10 = tail call i32 (i8*, ...) @__isoc99_scanf(i8* getelementptr inbounds ([3 x i8], [3 x i8]* @.str.1, i64 0, i64 0), i32* nonnull %9)
  %11 = add nuw nsw i64 %8, 1
  %12 = load i32, i32* @n1, align 4, !tbaa !5
  %13 = sext i32 %12 to i64
  %14 = icmp slt i64 %11, %13
  br i1 %14, label %7, label %4, !llvm.loop !9

15:                                               ; preds = %4, %15
  %16 = phi i64 [ %19, %15 ], [ 0, %4 ]
  %17 = getelementptr inbounds [50 x i32], [50 x i32]* @a2, i64 0, i64 %16
  %18 = tail call i32 (i8*, ...) @__isoc99_scanf(i8* getelementptr inbounds ([3 x i8], [3 x i8]* @.str.1, i64 0, i64 0), i32* nonnull %17)
  %19 = add nuw nsw i64 %16, 1
  %20 = load i32, i32* @n2, align 4, !tbaa !5
  %21 = sext i32 %20 to i64
  %22 = icmp slt i64 %19, %21
  br i1 %22, label %15, label %23, !llvm.loop !11

23:                                               ; preds = %15, %4
  ret void
}